; Function Attrs: null_pointer_is_valid sspstrong uwtable
define internal i32 @dissect_h245_MultiplexEntryDescriptor(ptr noundef %0, i32 noundef %1, ptr noundef %2, ptr noundef %3, i32 noundef %4) #1 {
  store ptr null, ptr @h223_me, align 8
  store i8 0, ptr @h223_mc, align 1
  %6 = load i32, ptr @ett_h245_MultiplexEntryDescriptor, align 4
  %7 = tail call i32 @dissect_per_sequence(ptr noundef %0, i32 noundef %1, ptr noundef %2, ptr noundef %3, i32 noundef %4, i32 noundef %6, ptr noundef nonnull @MultiplexEntryDescriptor_sequence)
  %8 = load ptr, ptr @h223_set_mc_handle, align 8
  %.not = icmp eq ptr %8, null
  br i1 %.not, label %14, label %9

9:                                                ; preds = %5
  %10 = getelementptr inbounds nuw i8, ptr %2, i64 16
  %11 = load ptr, ptr %10, align 8
  %12 = load i8, ptr @h223_mc, align 1
  %13 = load ptr, ptr @h223_me, align 8
  tail call void %8(ptr noundef %11, i8 noundef zeroext %12, ptr noundef %13)
  br label %14

14:                                               ; preds = %9, %5
  ret i32 %7
}